target datalayout = "e-m:e-p270:32:32-p271:32:32-p272:64:64-i64:64-i128:128-f80:128-n8:16:32:64-S128"
target triple = "x86_64-pc-linux-gnu"

; Function Attrs: nounwind sspstrong uwtable
define internal i64 @opt_W_getter(i64 noundef %0, ptr noundef %1) #0 {
  %3 = alloca i64, align 8
  %4 = alloca i64, align 8
  %5 = alloca ptr, align 8
  %6 = alloca i64, align 8
  %7 = alloca i32, align 4
  store i64 %0, ptr %4, align 8, !tbaa !42
  store ptr %1, ptr %5, align 8, !tbaa !72
  call void @llvm.lifetime.start.p0(i64 8, ptr %6) #24
  %8 = call ptr @rb_ruby_verbose_ptr()
  %9 = load i64, ptr %8, align 8, !tbaa !42
  store i64 %9, ptr %6, align 8, !tbaa !42
  %10 = load i64, ptr %6, align 8, !tbaa !42
  switch i64 %10, label %14 [
    i64 4, label %11
    i64 0, label %12
    i64 20, label %13
  ]

11:                                               ; preds = %2
  store i64 1, ptr %3, align 8
  store i32 1, ptr %7, align 4
  br label %15

12:                                               ; preds = %2
  store i64 3, ptr %3, align 8
  store i32 1, ptr %7, align 4
  br label %15

13:                                               ; preds = %2
  store i64 5, ptr %3, align 8
  store i32 1, ptr %7, align 4
  br label %15

14:                                               ; preds = %2
  store i64 4, ptr %3, align 8
  store i32 1, ptr %7, align 4
  br label %15

15:                                               ; preds = %14, %13, %12, %11
  call void @llvm.lifetime.end.p0(i64 8, ptr %6) #24
  %16 = load i64, ptr %3, align 8
  ret i64 %16
}