; Function Attrs: nounwind sspstrong uwtable
define internal range(i64 1, 6) i64 @opt_W_getter(i64 %0, ptr readnone captures(none) %1) #0 {
  %3 = tail call ptr @rb_ruby_verbose_ptr() #25
  %4 = load i64, ptr %3, align 8, !tbaa !47
  switch i64 %4, label %7 [
    i64 4, label %8
    i64 0, label %5
    i64 20, label %6
  ]

5:                                                ; preds = %2
  br label %8

6:                                                ; preds = %2
  br label %8

7:                                                ; preds = %2
  br label %8

8:                                                ; preds = %2, %7, %6, %5
  %.0 = phi i64 [ 4, %7 ], [ 5, %6 ], [ 3, %5 ], [ 1, %2 ]
  ret i64 %.0
}